((lp0
I1
aI2
aI4
aI8
aI16
aI32
aI64
aI128
aI256
aI512
aI1024
aI2048
aI4096
aI8192
aI16384
aI32768
aI65536
aI131072
aI262144
a(lp1
F3.2186508178710938e-05
aF3.2901763916015625e-05
aF3.2901763916015625e-05
aF3.2901763916015625e-05
aF3.3855438232421875e-05
aF3.5047531127929688e-05
aF3.6954879760742188e-05
aF4.1961669921875e-05
aF5.1975250244140625e-05
aF7.5817108154296875e-05
aF0.00011992454528808594
aF0.00021290779113769531
aF0.00039076805114746094
aF0.00080800056457519531
aF0.0017979145050048828
aF0.0040328502655029297
aF0.0086719989776611328
aF0.019284963607788086
aF0.042066097259521484
a(lp2
cnumpy.core.multiarray
scalar
p3
(cnumpy
dtype
p4
(S'i4'
p5
I0
I1
tp6
Rp7
(I3
S'<'
p8
NNNI-1
I-1
I0
tp9
bS'\x00\x00\x00\x00'
p10
tp11
Rp12
aI1
aI2
aI3
aI4
aI5
aI6
aI7
aI8
aI9
aI10
aI11
aI12
aI13
aI14
aI15
aI16
aI17
aI18
aI19
aI20
aI21
aI22
aI23
aI24
aI25
aI26
aI27
aI28
aI29
aI30
aI31
aI32
aI33
aI34
aI35
aI36
aI37
aI38
aI39
aI40
aI41
aI42
aI43
aI44
aI45
aI46
ag3
(g7
S'/\x00\x00\x00'
p13
tp14
Rp15
aI48
aI49
aI50
aI51
aI52
ag3
(g7
S'5\x00\x00\x00'
p16
tp17
Rp18
aI54
aI55
ag3
(g7
S'8\x00\x00\x00'
p19
tp20
Rp21
aI57
aI58
aI59
ag3
(g7
S'<\x00\x00\x00'
p22
tp23
Rp24
aI61
aI62
ag3
(g7
S'?\x00\x00\x00'
p25
tp26
Rp27
aI64
ag3
(g7
S'A\x00\x00\x00'
p28
tp29
Rp30
aI66
aI67
ag3
(g7
S'D\x00\x00\x00'
p31
tp32
Rp33
aI69
ag3
(g7
S'F\x00\x00\x00'
p34
tp35
Rp36
aI71
aI72
ag3
(g7
S'I\x00\x00\x00'
p37
tp38
Rp39
aI74
ag3
(g7
S'K\x00\x00\x00'
p40
tp41
Rp42
aI76
ag3
(g7
S'M\x00\x00\x00'
p43
tp44
Rp45
aI78
ag3
(g7
S'O\x00\x00\x00'
p46
tp47
Rp48
aI80
ag3
(g7
S'Q\x00\x00\x00'
p49
tp50
Rp51
aI82
ag3
(g7
S'S\x00\x00\x00'
p52
tp53
Rp54
aI84
ag3
(g7
S'U\x00\x00\x00'
p55
tp56
Rp57
aI86
ag3
(g7
S'W\x00\x00\x00'
p58
tp59
Rp60
aI88
ag3
(g7
S'Y\x00\x00\x00'
p61
tp62
Rp63
ag3
(g7
S'Z\x00\x00\x00'
p64
tp65
Rp66
aI91
ag3
(g7
S'\\\x00\x00\x00'
p67
tp68
Rp69
aI93
ag3
(g7
S'^\x00\x00\x00'
p70
tp71
Rp72
aI95
ag3
(g7
S'`\x00\x00\x00'
p73
tp74
Rp75
ag3
(g7
S'a\x00\x00\x00'
p76
tp77
Rp78
aI98
ag3
(g7
S'c\x00\x00\x00'
p79
tp80
Rp81
aI100
ag3
(g7
S'e\x00\x00\x00'
p82
tp83
Rp84
ag3
(g7
S'f\x00\x00\x00'
p85
tp86
Rp87
aI103
ag3
(g7
S'h\x00\x00\x00'
p88
tp89
Rp90
aI105
ag3
(g7
S'j\x00\x00\x00'
p91
tp92
Rp93
ag3
(g7
S'k\x00\x00\x00'
p94
tp95
Rp96
aI108
ag3
(g7
S'm\x00\x00\x00'
p97
tp98
Rp99
ag3
(g7
S'n\x00\x00\x00'
p100
tp101
Rp102
aI111
ag3
(g7
S'p\x00\x00\x00'
p103
tp104
Rp105
aI113
ag3
(g7
S'r\x00\x00\x00'
p106
tp107
Rp108
ag3
(g7
S's\x00\x00\x00'
p109
tp110
Rp111
aI116
ag3
(g7
S'u\x00\x00\x00'
p112
tp113
Rp114
ag3
(g7
S'v\x00\x00\x00'
p115
tp116
Rp117
aI119
ag3
(g7
S'x\x00\x00\x00'
p118
tp119
Rp120
ag3
(g7
S'y\x00\x00\x00'
p121
tp122
Rp123
aI122
ag3
(g7
S'{\x00\x00\x00'
p124
tp125
Rp126
ag3
(g7
S'|\x00\x00\x00'
p127
tp128
Rp129
aI125
ag3
(g7
S'~\x00\x00\x00'
p130
tp131
Rp132
ag3
(g7
S'\x7f\x00\x00\x00'
p133
tp134
Rp135
aI128
aI132
aI135
aI138
aI142
aI145
aI149
aI153
aI157
aI161
aI165
aI169
aI173
aI177
aI182
aI186
aI191
aI196
aI201
aI206
aI211
aI217
aI222
aI228
aI233
aI239
aI245
aI252
aI256
aI258
aI264
aI271
aI278
aI285
aI292
aI300
aI307
aI315
aI323
aI331
aI339
aI348
aI357
aI366
aI375
aI385
aI394
aI404
aI414
aI425
aI436
aI447
aI458
aI470
aI481
aI494
aI506
aI512
aI519
aI532
aI546
aI559
aI573
aI588
aI603
aI618
aI634
aI650
aI666
aI683
aI700
aI718
aI736
aI755
aI774
aI794
aI814
aI834
aI855
aI877
aI899
aI922
aI945
aI969
aI994
aI1019
aI1024
aI1045
aI1071
aI1098
aI1126
aI1154
aI1184
aI1214
aI1244
aI1276
aI1308
aI1341
aI1375
aI1410
aI1446
aI1482
aI1520
aI1558
aI1598
aI1638
aI1680
aI1722
aI1766
aI1810
aI1856
aI1903
aI1951
aI2001
aI2048
aI2051
aI2103
aI2157
aI2211
aI2267
aI2324
aI2383
aI2444
aI2505
aI2569
aI2634
aI2701
aI2769
aI2839
aI2911
aI2985
aI3060
aI3138
aI3217
aI3298
aI3382
aI3468
aI3555
aI3645
aI3738
aI3832
aI3929
aI4029
aI4096
aI4131
aI4235
aI4343
aI4453
aI4565
aI4681
aI4799
aI4921
aI5045
aI5173
aI5304
aI5438
aI5576
aI5717
aI5862
aI6010
aI6162
aI6318
aI6478
aI6642
aI6811
aI6983
aI7160
aI7341
aI7527
aI7718
aI7913
aI8113
aI8192
aI8319
aI8529
aI8745
aI8967
aI9194
aI9426
aI9665
aI9910
aI10161
aI10418
aI10682
aI10952
aI11229
aI11514
aI11805
aI12104
aI12410
aI12725
aI13047
aI13377
aI13716
aI14063
aI14419
aI14784
aI15158
aI15542
aI15936
aI16339
aI16384
aI16753
aI17177
aI17612
aI18058
aI18515
aI18984
aI19464
aI19957
aI20462
aI20980
aI21511
aI22056
aI22615
aI23187
aI23774
aI24376
aI24993
aI25626
aI26275
aI26940
aI27622
aI28321
aI29038
aI29774
aI30527
aI31300
aI32093
aI32768
aI32905
aI33738
aI34593
aI35468
aI36366
aI37287
aI38231
aI39199
aI40192
aI41209
aI42253
aI43322
aI44419
aI45544
aI46697
aI47879
aI49091
aI50334
aI51609
aI52915
aI54255
aI55629
aI57037
aI58481
aI59962
aI61480
aI63036
aI64632
aI65536
aI66269
aI67947
aI69667
aI71431
aI73239
aI75094
aI76995
aI78944
aI80943
aI82992
aI85094
aI87248
aI89457
aI91722
aI94044
aI96425
aI98866
aI101370
aI103936
aI106568
aI109266
aI112032
aI114869
aI117777
aI120759
aI123816
aI126951
aI130165
aI131072
aI133461
aI136840
aI140304
aI143857
aI147499
aI151233
aI155062
aI158988
aI163014
aI167141
aI171373
aI175712
aI180160
aI184722
aI189399
aI194194
aI199111
aI204152
aI209321
aI214620
aI220054
aI225625
aI231338
aI237195
aI243200
aI249358
aI255671
aI262144
a(lp136
F3.6954879760742188e-05
aF3.2186508178710938e-05
aF3.1948089599609375e-05
aF3.1948089599609375e-05
aF3.2901763916015625e-05
aF3.3855438232421875e-05
aF3.3140182495117188e-05
aF3.3855438232421875e-05
aF3.3855438232421875e-05
aF3.3855438232421875e-05
aF3.4093856811523438e-05
aF3.4809112548828125e-05
aF3.3855438232421875e-05
aF3.4093856811523438e-05
aF3.3855438232421875e-05
aF3.3855438232421875e-05
aF3.3140182495117188e-05
aF3.7908554077148438e-05
aF3.7908554077148438e-05
aF3.8862228393554688e-05
aF3.6954879760742188e-05
aF3.7908554077148438e-05
aF3.8862228393554688e-05
aF4.00543212890625e-05
aF3.7908554077148438e-05
aF3.4093856811523438e-05
aF3.6001205444335938e-05
aF3.5047531127929688e-05
aF3.6001205444335938e-05
aF3.814697265625e-05
aF3.5047531127929688e-05
aF3.814697265625e-05
aF3.4809112548828125e-05
aF3.6001205444335938e-05
aF3.6954879760742188e-05
aF3.6001205444335938e-05
aF3.6001205444335938e-05
aF4.100799560546875e-05
aF3.7908554077148438e-05
aF4.100799560546875e-05
aF3.8862228393554688e-05
aF4.57763671875e-05
aF4.100799560546875e-05
aF4.6968460083007812e-05
aF4.1961669921875e-05
aF3.9815902709960938e-05
aF4.291534423828125e-05
aF4.8875808715820312e-05
aF4.100799560546875e-05
aF4.1961669921875e-05
aF4.0769577026367188e-05
aF4.1961669921875e-05
aF4.2200088500976562e-05
aF5.1021575927734375e-05
aF4.100799560546875e-05
aF4.2200088500976562e-05
aF4.3153762817382812e-05
aF4.4107437133789062e-05
aF4.57763671875e-05
aF5.3882598876953125e-05
aF4.1961669921875e-05
aF5.4121017456054688e-05
aF4.57763671875e-05
aF4.291534423828125e-05
aF4.1961669921875e-05
aF4.291534423828125e-05
aF4.38690185546875e-05
aF5.7220458984375e-05
aF4.38690185546875e-05
aF4.482269287109375e-05
aF4.00543212890625e-05
aF5.3882598876953125e-05
aF3.9815902709960938e-05
aF5.6028366088867188e-05
aF4.38690185546875e-05
aF3.9815902709960938e-05
aF4.100799560546875e-05
aF4.1961669921875e-05
aF4.1961669921875e-05
aF5.7935714721679688e-05
aF3.8862228393554688e-05
aF3.9815902709960938e-05
aF7.2002410888671875e-05
aF9.5844268798828125e-05
aF7.1763992309570312e-05
aF4.6014785766601562e-05
aF5.1021575927734375e-05
aF4.7922134399414062e-05
aF4.57763671875e-05
aF6.9856643676757812e-05
aF4.482269287109375e-05
aF4.6968460083007812e-05
aF4.6968460083007812e-05
aF4.8875808715820312e-05
aF5.3882598876953125e-05
aF4.6968460083007812e-05
aF4.5061111450195312e-05
aF7.5101852416992188e-05
aF4.6968460083007812e-05
aF4.6968460083007812e-05
aF4.38690185546875e-05
aF7.7962875366210938e-05
aF4.6968460083007812e-05
aF7.9870223999023438e-05
aF4.6968460083007812e-05
aF4.6014785766601562e-05
aF5.6982040405273438e-05
aF7.6055526733398438e-05
aF4.1961669921875e-05
aF7.7962875366210938e-05
aF4.4107437133789062e-05
aF4.7922134399414062e-05
aF4.3153762817382812e-05
aF8.3208084106445312e-05
aF7.5101852416992188e-05
aF8.20159912109375e-05
aF5.1021575927734375e-05
aF4.8875808715820312e-05
aF5.9843063354492188e-05
aF7.0810317993164062e-05
aF4.6968460083007812e-05
aF4.9829483032226562e-05
aF6.198883056640625e-05
aF5.5074691772460938e-05
aF5.1975250244140625e-05
aF4.6968460083007812e-05
aF4.7922134399414062e-05
aF9.9897384643554688e-05
aF4.6968460083007812e-05
aF4.8875808715820312e-05
aF4.7922134399414062e-05
aF5.1975250244140625e-05
aF6.9856643676757812e-05
aF5.4121017456054688e-05
aF0.0001220703125
aF5.2928924560546875e-05
aF0.00013208389282226562
aF5.1021575927734375e-05
aF4.8160552978515625e-05
aF5.1975250244140625e-05
aF0.00013709068298339844
aF6.29425048828125e-05
aF8.678436279296875e-05
aF9.1075897216796875e-05
aF0.00017309188842773438
aF5.7935714721679688e-05
aF7.4863433837890625e-05
aF9.8943710327148438e-05
aF0.00020098686218261719
aF6.6041946411132812e-05
aF6.6995620727539062e-05
aF6.103515625e-05
aF0.00023579597473144531
aF0.00024485588073730469
aF6.29425048828125e-05
aF5.9843063354492188e-05
aF5.6982040405273438e-05
aF7.2956085205078125e-05
aF6.389617919921875e-05
aF0.00027585029602050781
aF0.00012898445129394531
aF9.8943710327148438e-05
aF0.00014019012451171875
aF6.29425048828125e-05
aF0.00037503242492675781
aF6.6995620727539062e-05
aF7.7009201049804688e-05
aF0.00042581558227539062
aF0.00012803077697753906
aF7.7009201049804688e-05
aF7.7009201049804688e-05
aF9.5844268798828125e-05
aF6.9141387939453125e-05
aF7.9870223999023438e-05
aF0.00021386146545410156
aF0.00011897087097167969
aF7.7009201049804688e-05
aF0.00011801719665527344
aF0.00018095970153808594
aF0.000186920166015625
aF0.00029587745666503906
aF0.00010395050048828125
aF0.0001049041748046875
aF9.7036361694335938e-05
aF9.9897384643554688e-05
aF8.296966552734375e-05
aF0.00023198127746582031
aF9.6797943115234375e-05
aF9.9897384643554688e-05
aF0.00011897087097167969
aF0.00024890899658203125
aF9.3936920166015625e-05
aF0.00013184547424316406
aF0.00019693374633789062
aF0.000514984130859375
aF0.0001049041748046875
aF0.00012183189392089844
aF0.0015020370483398438
aF0.00015711784362792969
aF0.00064301490783691406
aF0.00011897087097167969
aF0.00025892257690429688
aF0.00013995170593261719
aF0.00077199935913085938
aF0.00013589859008789062
aF0.00023889541625976562
aF0.00019192695617675781
aF0.0026710033416748047
aF0.00016999244689941406
aF0.0010149478912353516
aF0.00013589859008789062
aF0.00015807151794433594
aF0.00020909309387207031
aF0.0037600994110107422
aF0.00011992454528808594
aF0.00033497810363769531
aF0.0002880096435546875
aF0.00031805038452148438
aF0.0015749931335449219
aF0.0023069381713867188
aF0.00042295455932617188
aF0.0020220279693603516
aF0.00084996223449707031
aF0.00031304359436035156
aF0.00041818618774414062
aF0.00050902366638183594
aF0.00029397010803222656
aF0.00039601325988769531
aF0.00075101852416992188
aF0.0003509521484375
aF0.00032496452331542969
aF0.00039601325988769531
aF0.00041699409484863281
aF0.00041818618774414062
aF0.00040507316589355469
aF0.00044608116149902344
aF0.0038988590240478516
aF0.00073289871215820312
aF0.00039696693420410156
aF0.000762939453125
aF0.015104055404663086
aF0.00049495697021484375
aF0.00023293495178222656
aF0.0012309551239013672
aF0.0031630992889404297
aF0.0032799243927001953
aF0.00058388710021972656
aF0.020373821258544922
aF0.00063800811767578125
aF0.021357059478759766
aF0.00088810920715332031
aF0.00099396705627441406
aF0.0017418861389160156
aF0.0023128986358642578
aF0.000782012939453125
aF0.00073289871215820312
aF0.0011467933654785156
aF0.0008449554443359375
aF0.0011930465698242188
aF0.00066781044006347656
aF0.0030388832092285156
aF0.039283037185668945
aF0.0010821819305419922
aF0.0013709068298339844
aF0.0010199546813964844
aF0.0010869503021240234
aF0.00068306922912597656
aF0.0010559558868408203
aF0.0031280517578125
aF0.058691024780273438
aF0.00098919868469238281
aF0.0003910064697265625
aF0.00074505805969238281
aF0.00083708763122558594
aF0.0012729167938232422
aF0.0012319087982177734
aF0.0011429786682128906
aF0.0018749237060546875
aF0.082017898559570312
aF0.0010809898376464844
aF0.0079660415649414062
aF0.0067930221557617188
aF0.0011568069458007812
aF0.036299943923950195
aF0.0014979839324951172
aF0.11350011825561523
aF0.0085680484771728516
aF0.0064549446105957031
aF0.0019390583038330078
aF0.0011570453643798828
aF0.0016839504241943359
aF0.0013539791107177734
aF0.0020678043365478516
aF0.16686201095581055
aF0.0023751258850097656
aF0.034070968627929688
aF0.0031080245971679688
aF0.0034570693969726562
aF0.0034360885620117188
aF0.0020930767059326172
aF0.00081086158752441406
aF0.0041639804840087891
aF0.055038928985595703
aF0.0019030570983886719
aF0.0020802021026611328
aF0.10619401931762695
aF0.024583101272583008
aF0.033461093902587891
aF0.015501022338867188
aF0.019896984100341797
aF0.12970495223999023
aF0.0030050277709960938
aF0.0023939609527587891
aF0.0040090084075927734
aF0.0037360191345214844
aF0.012283086776733398
aF0.0044560432434082031
aF0.00333404541015625
aF0.0099728107452392578
aF0.1133110523223877
aF0.0028998851776123047
aF0.0038409233093261719
aF0.0041220188140869141
aF0.84870195388793945
aF0.0028951168060302734
aF0.0035960674285888672
aF0.010844945907592773
aF0.0055060386657714844
aF1.1287510395050049
aF0.0017900466918945312
aF0.035691976547241211
aF0.0083148479461669922
aF0.0045230388641357422
aF0.39138603210449219
aF0.0042569637298583984
aF0.0054090023040771484
aF0.020097017288208008
aF0.082412958145141602
aF0.020823955535888672
aF0.028990983963012695
aF0.014640092849731445
aF0.029314994812011719
aF0.1607050895690918
aF0.010351181030273438
aF0.69252705574035645
aF0.012465953826904297
aF0.095549821853637695
aF0.16110110282897949
aF0.034629106521606445
aF0.01795196533203125
aF0.06995391845703125
aF0.013585090637207031
aF1.0384299755096436
aF1.0892739295959473
aF0.0085520744323730469
aF0.01541900634765625
aF0.024634122848510742
aF0.0037779808044433594
aF0.35145092010498047
aF0.28348708152770996
aF0.039703130722045898
aF0.56909704208374023
aF0.0087099075317382812
aF0.062181949615478516
aF5.9014978408813477
aF6.2208149433135986
aF0.013273954391479492
aF0.010790109634399414
aF0.01247096061706543
aF2.3374021053314209
aF0.05811309814453125
aF0.36214399337768555
aF0.056110858917236328
aF0.015559911727905273
aF0.49476504325866699
aF0.65225911140441895
aF1.9865918159484863
aF0.040040016174316406
aF0.23654508590698242
aF0.061401128768920898
aF13.317757129669189
aF14.010036945343018
aF0.31421494483947754
aF0.016168832778930664
aF0.021377086639404297
aF0.19646382331848145
aF0.0087320804595947266
aF0.92973995208740234
aF0.020796060562133789
aF0.032781124114990234
aF0.10209894180297852
aF4.1678121089935303
aF7.2261111736297607
aF0.021511077880859375
aF0.21443414688110352
aF5.1487760543823242
aF0.020834207534790039
aF0.051963090896606445
aF0.024762153625488281
aF6.3714480400085449
aF2.248075008392334
aF0.060698032379150391
aF0.025278091430664062
aF12.578938007354736
aF0.033707857131958008
aF0.027581930160522461
aF0.044186115264892578
aF3.2381129264831543
aF0.063619852066040039
aF0.056210041046142578
aF0.040023088455200195
aF11.802817106246948
aF0.037076950073242188
aF0.55150604248046875
aF0.5433809757232666
aF0.019299030303955078
aF0.72638320922851562
aF0.070893049240112305
aF0.044025897979736328
aF4.6310241222381592
aF0.047350168228149414
aF18.717162132263184
aF0.055587053298950195
aF2.7177751064300537
aF0.094042062759399414
aF0.060570001602172852
aF1.4393069744110107
aF0.050510883331298828
aF0.13261795043945312
aF0.36379003524780273
aF0.10243606567382812
aF0.068167924880981445
aF0.19170093536376953
aF0.078934192657470703
aF0.39878606796264648
aF0.070291042327880859
aF0.55283689498901367
aF0.061607122421264648
aF0.30674290657043457
aF0.1112518310546875
aF0.057802915573120117
aF82.931574106216431
aF0.14191102981567383
aF0.042346000671386719
a(lp137
g3
(g7
S'\x00\x00\x00\x00'
p138
tp139
Rp140
ag3
(g7
S'\x01\x00\x00\x00'
p141
tp142
Rp143
ag3
(g7
S'\x02\x00\x00\x00'
p144
tp145
Rp146
ag3
(g7
S'\x03\x00\x00\x00'
p147
tp148
Rp149
ag3
(g7
S'\x04\x00\x00\x00'
p150
tp151
Rp152
ag3
(g7
S'\x05\x00\x00\x00'
p153
tp154
Rp155
ag3
(g7
S'\x06\x00\x00\x00'
p156
tp157
Rp158
ag3
(g7
S'\x07\x00\x00\x00'
p159
tp160
Rp161
ag3
(g7
S'\x08\x00\x00\x00'
p162
tp163
Rp164
ag3
(g7
S'\t\x00\x00\x00'
p165
tp166
Rp167
ag3
(g7
S'\n\x00\x00\x00'
p168
tp169
Rp170
ag3
(g7
S'\x0b\x00\x00\x00'
p171
tp172
Rp173
ag3
(g7
S'\x0c\x00\x00\x00'
p174
tp175
Rp176
ag3
(g7
S'\r\x00\x00\x00'
p177
tp178
Rp179
ag3
(g7
S'\x0e\x00\x00\x00'
p180
tp181
Rp182
ag3
(g7
S'\x0f\x00\x00\x00'
p183
tp184
Rp185
ag3
(g7
S'\x10\x00\x00\x00'
p186
tp187
Rp188
ag3
(g7
S'\x11\x00\x00\x00'
p189
tp190
Rp191
ag3
(g7
S'\x12\x00\x00\x00'
p192
tp193
Rp194
ag3
(g7
S'\x13\x00\x00\x00'
p195
tp196
Rp197
ag3
(g7
S'\x14\x00\x00\x00'
p198
tp199
Rp200
ag3
(g7
S'\x15\x00\x00\x00'
p201
tp202
Rp203
ag3
(g7
S'\x16\x00\x00\x00'
p204
tp205
Rp206
ag3
(g7
S'\x17\x00\x00\x00'
p207
tp208
Rp209
ag3
(g7
S'\x18\x00\x00\x00'
p210
tp211
Rp212
ag3
(g7
S'\x19\x00\x00\x00'
p213
tp214
Rp215
ag3
(g7
S'\x1a\x00\x00\x00'
p216
tp217
Rp218
ag3
(g7
S'\x1b\x00\x00\x00'
p219
tp220
Rp221
ag3
(g7
S'\x1c\x00\x00\x00'
p222
tp223
Rp224
ag3
(g7
S'\x1d\x00\x00\x00'
p225
tp226
Rp227
ag3
(g7
S'\x1e\x00\x00\x00'
p228
tp229
Rp230
ag3
(g7
S'\x1f\x00\x00\x00'
p231
tp232
Rp233
ag3
(g7
S' \x00\x00\x00'
p234
tp235
Rp236
ag3
(g7
S'!\x00\x00\x00'
p237
tp238
Rp239
ag3
(g7
S'"\x00\x00\x00'
p240
tp241
Rp242
ag3
(g7
S'#\x00\x00\x00'
p243
tp244
Rp245
ag3
(g7
S'$\x00\x00\x00'
p246
tp247
Rp248
ag3
(g7
S'%\x00\x00\x00'
p249
tp250
Rp251
ag3
(g7
S'&\x00\x00\x00'
p252
tp253
Rp254
ag3
(g7
S"'\x00\x00\x00"
p255
tp256
Rp257
ag3
(g7
S'(\x00\x00\x00'
p258
tp259
Rp260
ag3
(g7
S')\x00\x00\x00'
p261
tp262
Rp263
ag3
(g7
S'*\x00\x00\x00'
p264
tp265
Rp266
ag3
(g7
S'+\x00\x00\x00'
p267
tp268
Rp269
ag3
(g7
S',\x00\x00\x00'
p270
tp271
Rp272
ag3
(g7
S'-\x00\x00\x00'
p273
tp274
Rp275
ag3
(g7
S'.\x00\x00\x00'
p276
tp277
Rp278
ag3
(g7
S'/\x00\x00\x00'
p279
tp280
Rp281
ag3
(g7
S'0\x00\x00\x00'
p282
tp283
Rp284
ag3
(g7
S'1\x00\x00\x00'
p285
tp286
Rp287
ag3
(g7
S'2\x00\x00\x00'
p288
tp289
Rp290
ag3
(g7
S'3\x00\x00\x00'
p291
tp292
Rp293
ag3
(g7
S'4\x00\x00\x00'
p294
tp295
Rp296
ag3
(g7
S'5\x00\x00\x00'
p297
tp298
Rp299
ag3
(g7
S'6\x00\x00\x00'
p300
tp301
Rp302
ag3
(g7
S'7\x00\x00\x00'
p303
tp304
Rp305
ag3
(g7
S'8\x00\x00\x00'
p306
tp307
Rp308
ag3
(g7
S'9\x00\x00\x00'
p309
tp310
Rp311
ag3
(g7
S':\x00\x00\x00'
p312
tp313
Rp314
ag3
(g7
S';\x00\x00\x00'
p315
tp316
Rp317
ag3
(g7
S'<\x00\x00\x00'
p318
tp319
Rp320
ag3
(g7
S'=\x00\x00\x00'
p321
tp322
Rp323
ag3
(g7
S'>\x00\x00\x00'
p324
tp325
Rp326
ag3
(g7
S'?\x00\x00\x00'
p327
tp328
Rp329
ag3
(g7
S'@\x00\x00\x00'
p330
tp331
Rp332
ag3
(g7
S'A\x00\x00\x00'
p333
tp334
Rp335
ag3
(g7
S'B\x00\x00\x00'
p336
tp337
Rp338
ag3
(g7
S'C\x00\x00\x00'
p339
tp340
Rp341
ag3
(g7
S'D\x00\x00\x00'
p342
tp343
Rp344
ag3
(g7
S'E\x00\x00\x00'
p345
tp346
Rp347
ag3
(g7
S'F\x00\x00\x00'
p348
tp349
Rp350
ag3
(g7
S'G\x00\x00\x00'
p351
tp352
Rp353
ag3
(g7
S'H\x00\x00\x00'
p354
tp355
Rp356
ag3
(g7
S'I\x00\x00\x00'
p357
tp358
Rp359
ag3
(g7
S'J\x00\x00\x00'
p360
tp361
Rp362
ag3
(g7
S'K\x00\x00\x00'
p363
tp364
Rp365
ag3
(g7
S'L\x00\x00\x00'
p366
tp367
Rp368
ag3
(g7
S'M\x00\x00\x00'
p369
tp370
Rp371
ag3
(g7
S'N\x00\x00\x00'
p372
tp373
Rp374
ag3
(g7
S'O\x00\x00\x00'
p375
tp376
Rp377
ag3
(g7
S'P\x00\x00\x00'
p378
tp379
Rp380
ag3
(g7
S'Q\x00\x00\x00'
p381
tp382
Rp383
ag3
(g7
S'R\x00\x00\x00'
p384
tp385
Rp386
ag3
(g7
S'S\x00\x00\x00'
p387
tp388
Rp389
ag3
(g7
S'T\x00\x00\x00'
p390
tp391
Rp392
ag3
(g7
S'U\x00\x00\x00'
p393
tp394
Rp395
ag3
(g7
S'V\x00\x00\x00'
p396
tp397
Rp398
ag3
(g7
S'W\x00\x00\x00'
p399
tp400
Rp401
ag3
(g7
S'X\x00\x00\x00'
p402
tp403
Rp404
ag3
(g7
S'Y\x00\x00\x00'
p405
tp406
Rp407
ag3
(g7
S'Z\x00\x00\x00'
p408
tp409
Rp410
ag3
(g7
S'[\x00\x00\x00'
p411
tp412
Rp413
ag3
(g7
S'\\\x00\x00\x00'
p414
tp415
Rp416
ag3
(g7
S']\x00\x00\x00'
p417
tp418
Rp419
ag3
(g7
S'^\x00\x00\x00'
p420
tp421
Rp422
ag3
(g7
S'_\x00\x00\x00'
p423
tp424
Rp425
ag3
(g7
S'`\x00\x00\x00'
p426
tp427
Rp428
ag3
(g7
S'a\x00\x00\x00'
p429
tp430
Rp431
ag3
(g7
S'b\x00\x00\x00'
p432
tp433
Rp434
ag3
(g7
S'c\x00\x00\x00'
p435
tp436
Rp437
ag3
(g7
S'd\x00\x00\x00'
p438
tp439
Rp440
ag3
(g7
S'e\x00\x00\x00'
p441
tp442
Rp443
ag3
(g7
S'f\x00\x00\x00'
p444
tp445
Rp446
ag3
(g7
S'g\x00\x00\x00'
p447
tp448
Rp449
ag3
(g7
S'h\x00\x00\x00'
p450
tp451
Rp452
ag3
(g7
S'i\x00\x00\x00'
p453
tp454
Rp455
ag3
(g7
S'j\x00\x00\x00'
p456
tp457
Rp458
ag3
(g7
S'k\x00\x00\x00'
p459
tp460
Rp461
ag3
(g7
S'l\x00\x00\x00'
p462
tp463
Rp464
ag3
(g7
S'm\x00\x00\x00'
p465
tp466
Rp467
ag3
(g7
S'n\x00\x00\x00'
p468
tp469
Rp470
ag3
(g7
S'o\x00\x00\x00'
p471
tp472
Rp473
ag3
(g7
S'p\x00\x00\x00'
p474
tp475
Rp476
ag3
(g7
S'q\x00\x00\x00'
p477
tp478
Rp479
ag3
(g7
S'r\x00\x00\x00'
p480
tp481
Rp482
ag3
(g7
S's\x00\x00\x00'
p483
tp484
Rp485
ag3
(g7
S't\x00\x00\x00'
p486
tp487
Rp488
ag3
(g7
S'u\x00\x00\x00'
p489
tp490
Rp491
ag3
(g7
S'v\x00\x00\x00'
p492
tp493
Rp494
ag3
(g7
S'w\x00\x00\x00'
p495
tp496
Rp497
ag3
(g7
S'x\x00\x00\x00'
p498
tp499
Rp500
ag3
(g7
S'y\x00\x00\x00'
p501
tp502
Rp503
ag3
(g7
S'z\x00\x00\x00'
p504
tp505
Rp506
ag3
(g7
S'{\x00\x00\x00'
p507
tp508
Rp509
ag3
(g7
S'|\x00\x00\x00'
p510
tp511
Rp512
ag3
(g7
S'}\x00\x00\x00'
p513
tp514
Rp515
ag3
(g7
S'~\x00\x00\x00'
p516
tp517
Rp518
ag3
(g7
S'\x7f\x00\x00\x00'
p519
tp520
Rp521
ag3
(g7
S'\x80\x00\x00\x00'
p522
tp523
Rp524
ag3
(g7
S'\x85\x00\x00\x00'
p525
tp526
Rp527
ag3
(g7
S'\x8a\x00\x00\x00'
p528
tp529
Rp530
ag3
(g7
S'\x8f\x00\x00\x00'
p531
tp532
Rp533
ag3
(g7
S'\x94\x00\x00\x00'
p534
tp535
Rp536
ag3
(g7
S'\x99\x00\x00\x00'
p537
tp538
Rp539
ag3
(g7
S'\x9e\x00\x00\x00'
p540
tp541
Rp542
ag3
(g7
S'\xa4\x00\x00\x00'
p543
tp544
Rp545
ag3
(g7
S'\xaa\x00\x00\x00'
p546
tp547
Rp548
ag3
(g7
S'\xb0\x00\x00\x00'
p549
tp550
Rp551
ag3
(g7
S'\xb6\x00\x00\x00'
p552
tp553
Rp554
ag3
(g7
S'\xbd\x00\x00\x00'
p555
tp556
Rp557
ag3
(g7
S'\xc3\x00\x00\x00'
p558
tp559
Rp560
ag3
(g7
S'\xca\x00\x00\x00'
p561
tp562
Rp563
ag3
(g7
S'\xd1\x00\x00\x00'
p564
tp565
Rp566
ag3
(g7
S'\xd9\x00\x00\x00'
p567
tp568
Rp569
ag3
(g7
S'\xe1\x00\x00\x00'
p570
tp571
Rp572
ag3
(g7
S'\xe9\x00\x00\x00'
p573
tp574
Rp575
ag3
(g7
S'\xf1\x00\x00\x00'
p576
tp577
Rp578
ag3
(g7
S'\xf9\x00\x00\x00'
p579
tp580
Rp581
ag3
(g7
S'\x02\x01\x00\x00'
p582
tp583
Rp584
ag3
(g7
S'\x0b\x01\x00\x00'
p585
tp586
Rp587
ag3
(g7
S'\x15\x01\x00\x00'
p588
tp589
Rp590
ag3
(g7
S'\x1f\x01\x00\x00'
p591
tp592
Rp593
ag3
(g7
S')\x01\x00\x00'
p594
tp595
Rp596
ag3
(g7
S'4\x01\x00\x00'
p597
tp598
Rp599
ag3
(g7
S'?\x01\x00\x00'
p600
tp601
Rp602
ag3
(g7
S'J\x01\x00\x00'
p603
tp604
Rp605
ag3
(g7
S'V\x01\x00\x00'
p606
tp607
Rp608
ag3
(g7
S'b\x01\x00\x00'
p609
tp610
Rp611
ag3
(g7
S'n\x01\x00\x00'
p612
tp613
Rp614
ag3
(g7
S'{\x01\x00\x00'
p615
tp616
Rp617
ag3
(g7
S'\x89\x01\x00\x00'
p618
tp619
Rp620
ag3
(g7
S'\x97\x01\x00\x00'
p621
tp622
Rp623
ag3
(g7
S'\xa5\x01\x00\x00'
p624
tp625
Rp626
ag3
(g7
S'\xb4\x01\x00\x00'
p627
tp628
Rp629
ag3
(g7
S'\xc4\x01\x00\x00'
p630
tp631
Rp632
ag3
(g7
S'\xd4\x01\x00\x00'
p633
tp634
Rp635
ag3
(g7
S'\xe5\x01\x00\x00'
p636
tp637
Rp638
ag3
(g7
S'\xf6\x01\x00\x00'
p639
tp640
Rp641
ag3
(g7
S'\x08\x02\x00\x00'
p642
tp643
Rp644
ag3
(g7
S'\x1a\x02\x00\x00'
p645
tp646
Rp647
ag3
(g7
S'-\x02\x00\x00'
p648
tp649
Rp650
ag3
(g7
S'A\x02\x00\x00'
p651
tp652
Rp653
ag3
(g7
S'V\x02\x00\x00'
p654
tp655
Rp656
ag3
(g7
S'k\x02\x00\x00'
p657
tp658
Rp659
ag3
(g7
S'\x81\x02\x00\x00'
p660
tp661
Rp662
ag3
(g7
S'\x98\x02\x00\x00'
p663
tp664
Rp665
ag3
(g7
S'\xb0\x02\x00\x00'
p666
tp667
Rp668
ag3
(g7
S'\xc8\x02\x00\x00'
p669
tp670
Rp671
ag3
(g7
S'\xe1\x02\x00\x00'
p672
tp673
Rp674
ag3
(g7
S'\xfc\x02\x00\x00'
p675
tp676
Rp677
ag3
(g7
S'\x17\x03\x00\x00'
p678
tp679
Rp680
ag3
(g7
S'3\x03\x00\x00'
p681
tp682
Rp683
ag3
(g7
S'P\x03\x00\x00'
p684
tp685
Rp686
ag3
(g7
S'n\x03\x00\x00'
p687
tp688
Rp689
ag3
(g7
S'\x8e\x03\x00\x00'
p690
tp691
Rp692
ag3
(g7
S'\xae\x03\x00\x00'
p693
tp694
Rp695
ag3
(g7
S'\xd0\x03\x00\x00'
p696
tp697
Rp698
ag3
(g7
S'\xf2\x03\x00\x00'
p699
tp700
Rp701
ag3
(g7
S'\x16\x04\x00\x00'
p702
tp703
Rp704
ag3
(g7
S';\x04\x00\x00'
p705
tp706
Rp707
ag3
(g7
S'b\x04\x00\x00'
p708
tp709
Rp710
ag3
(g7
S'\x8a\x04\x00\x00'
p711
tp712
Rp713
ag3
(g7
S'\xb3\x04\x00\x00'
p714
tp715
Rp716
ag3
(g7
S'\xde\x04\x00\x00'
p717
tp718
Rp719
ag3
(g7
S'\x0b\x05\x00\x00'
p720
tp721
Rp722
ag3
(g7
S'9\x05\x00\x00'
p723
tp724
Rp725
ag3
(g7
S'h\x05\x00\x00'
p726
tp727
Rp728
ag3
(g7
S'\x9a\x05\x00\x00'
p729
tp730
Rp731
ag3
(g7
S'\xcd\x05\x00\x00'
p732
tp733
Rp734
ag3
(g7
S'\x01\x06\x00\x00'
p735
tp736
Rp737
ag3
(g7
S'8\x06\x00\x00'
p738
tp739
Rp740
ag3
(g7
S'q\x06\x00\x00'
p741
tp742
Rp743
ag3
(g7
S'\xac\x06\x00\x00'
p744
tp745
Rp746
ag3
(g7
S'\xe8\x06\x00\x00'
p747
tp748
Rp749
ag3
(g7
S"'\x07\x00\x00"
p750
tp751
Rp752
ag3
(g7
S'i\x07\x00\x00'
p753
tp754
Rp755
ag3
(g7
S'\xac\x07\x00\x00'
p756
tp757
Rp758
ag3
(g7
S'\xf2\x07\x00\x00'
p759
tp760
Rp761
ag3
(g7
S';\x08\x00\x00'
p762
tp763
Rp764
ag3
(g7
S'\x86\x08\x00\x00'
p765
tp766
Rp767
ag3
(g7
S'\xd3\x08\x00\x00'
p768
tp769
Rp770
ag3
(g7
S'$\t\x00\x00'
p771
tp772
Rp773
ag3
(g7
S'w\t\x00\x00'
p774
tp775
Rp776
ag3
(g7
S'\xce\t\x00\x00'
p777
tp778
Rp779
ag3
(g7
S"'\n\x00\x00"
p780
tp781
Rp782
ag3
(g7
S'\x84\n\x00\x00'
p783
tp784
Rp785
ag3
(g7
S'\xe3\n\x00\x00'
p786
tp787
Rp788
ag3
(g7
S'G\x0b\x00\x00'
p789
tp790
Rp791
ag3
(g7
S'\xae\x0b\x00\x00'
p792
tp793
Rp794
ag3
(g7
S'\x18\x0c\x00\x00'
p795
tp796
Rp797
ag3
(g7
S'\x86\x0c\x00\x00'
p798
tp799
Rp800
ag3
(g7
S'\xf9\x0c\x00\x00'
p801
tp802
Rp803
ag3
(g7
S'o\r\x00\x00'
p804
tp805
Rp806
ag3
(g7
S'\xe9\r\x00\x00'
p807
tp808
Rp809
ag3
(g7
S'h\x0e\x00\x00'
p810
tp811
Rp812
ag3
(g7
S'\xec\x0e\x00\x00'
p813
tp814
Rp815
ag3
(g7
S't\x0f\x00\x00'
p816
tp817
Rp818
ag3
(g7
S'\x00\x10\x00\x00'
p819
tp820
Rp821
a(lp822
F2.09808349609375e-05
aF2.288818359375e-05
aF2.4080276489257812e-05
aF2.5033950805664062e-05
aF2.6941299438476562e-05
aF2.7894973754882812e-05
aF2.9802322387695312e-05
aF3.1948089599609375e-05
aF3.3855438232421875e-05
aF3.6954879760742188e-05
aF4.100799560546875e-05
aF4.4107437133789062e-05
aF4.6014785766601562e-05
aF5.1021575927734375e-05
aF5.7935714721679688e-05
aF6.4849853515625e-05
aF7.3194503784179688e-05
aF7.5817108154296875e-05
aF8.106231689453125e-05
aF7.8916549682617188e-05
aF8.7022781372070312e-05
aF9.3936920166015625e-05
aF9.9897384643554688e-05
aF0.00010800361633300781
aF0.00011396408081054688
aF0.0001220703125
aF0.00014090538024902344
aF0.00015187263488769531
aF0.00015997886657714844
aF0.00017094612121582031
aF0.00018000602722167969
aF0.00019383430480957031
aF0.00020098686218261719
aF0.00021290779113769531
aF0.00022792816162109375
aF0.00021719932556152344
aF0.000225067138671875
aF0.00023889541625976562
aF0.00025296211242675781
aF0.00026702880859375
aF0.00029993057250976562
aF0.00031685829162597656
aF0.0003299713134765625
aF0.00031709671020507812
aF0.0003299713134765625
aF0.00034403800964355469
aF0.00035786628723144531
aF0.00037598609924316406
aF0.00042390823364257812
aF0.00044894218444824219
aF0.00041985511779785156
aF0.000431060791015625
aF0.00044798851013183594
aF0.0004730224609375
aF0.00053000450134277344
aF0.00055193901062011719
aF0.00051212310791015625
aF0.00053095817565917969
aF0.00055003166198730469
aF0.00062203407287597656
aF0.00058603286743164062
aF0.00060582160949707031
aF0.00063395500183105469
aF0.00070214271545410156
aF0.00072407722473144531
aF0.00068402290344238281
aF0.0007038116455078125
aF0.00080418586730957031
aF0.00075697898864746094
aF0.00076913833618164062
aF0.00078988075256347656
aF0.00090003013610839844
aF0.00084400177001953125
aF0.00085806846618652344
aF0.00096392631530761719
aF0.00091600418090820312
aF0.00092196464538574219
aF0.0010399818420410156
aF0.00098419189453125
aF0.0010130405426025391
aF0.0010349750518798828
aF0.0010600090026855469
aF0.0011239051818847656
aF0.0011210441589355469
aF0.0011351108551025391
aF0.0011649131774902344
aF0.0011930465698242188
aF0.0012781620025634766
aF0.0012459754943847656
aF0.0013868808746337891
aF0.0013000965118408203
aF0.0013589859008789062
aF0.0013430118560791016
aF0.0014319419860839844
aF0.0014009475708007812
aF0.0014932155609130859
aF0.0014820098876953125
aF0.0014920234680175781
aF0.0015349388122558594
aF0.0015530586242675781
aF0.0015871524810791016
aF0.0016129016876220703
aF0.0016450881958007812
aF0.0016980171203613281
aF0.0017819404602050781
aF0.0017440319061279297
aF0.0017759799957275391
aF0.00191497802734375
aF0.0018391609191894531
aF0.0018799304962158203
aF0.0020258426666259766
aF0.0019469261169433594
aF0.0020761489868164062
aF0.0020298957824707031
aF0.0020568370819091797
aF0.00232696533203125
aF0.0021259784698486328
aF0.0022020339965820312
aF0.0022330284118652344
aF0.0022370815277099609
aF0.0024099349975585938
aF0.0023150444030761719
aF0.0024180412292480469
aF0.0023870468139648438
aF0.0024368762969970703
aF0.0024960041046142578
aF0.0025358200073242188
aF0.0025949478149414062
aF0.0026171207427978516
aF0.0028338432312011719
aF0.0030159950256347656
aF0.0032610893249511719
aF0.0035488605499267578
aF0.0037090778350830078
aF0.0039429664611816406
aF0.0043048858642578125
aF0.0050470829010009766
aF0.0052280426025390625
aF0.0058169364929199219
aF0.0063490867614746094
aF0.0066709518432617188
aF0.0070979595184326172
aF0.0077850818634033203
aF0.0082688331604003906
aF0.0088748931884765625
aF0.0094921588897705078
aF0.010184764862060547
aF0.010867118835449219
aF0.011614084243774414
aF0.012485027313232422
aF0.013423919677734375
aF0.014374971389770508
aF0.015402078628540039
aF0.01649785041809082
aF0.017746925354003906
aF0.018982887268066406
aF0.020355939865112305
aF0.021812915802001953
aF0.023363113403320312
aF0.025106906890869141
aF0.026986122131347656
aF0.02903294563293457
aF0.03106999397277832
aF0.03345489501953125
aF0.035857915878295898
aF0.038323163986206055
aF0.041232109069824219
aF0.044172048568725586
aF0.047646999359130859
aF0.051165103912353516
aF0.054952859878540039
aF0.058983087539672852
aF0.063300132751464844
aF0.068315982818603516
aF0.073012113571166992
aF0.0784759521484375
aF0.084542036056518555
aF0.090604782104492188
aF0.097569942474365234
aF0.1049189567565918
aF0.11150002479553223
aF0.11950016021728516
aF0.12923908233642578
aF0.13839411735534668
aF0.14915704727172852
aF0.15941286087036133
aF0.17016100883483887
aF0.18202495574951172
aF0.19500303268432617
aF0.20994186401367188
aF0.22560906410217285
aF0.24285697937011719
aF0.2599949836730957
aF0.27829694747924805
aF0.29664897918701172
aF0.31845593452453613
aF0.34105992317199707
aF0.36622786521911621
aF0.39595508575439453
aF0.42723798751831055
aF0.45509696006774902
aF0.48688197135925293
aF0.52264189720153809
aF0.56514310836791992
aF0.60428690910339355
aF0.64604020118713379
aF0.69208192825317383
aF0.74715995788574219
aF0.79091691970825195
aF0.85414695739746094
aF0.92305803298950195
aF0.97759294509887695
aF1.0493040084838867
aF1.1270771026611328
aF1.2067930698394775
aF1.3001949787139893
aF1.3934528827667236
aF1.4891939163208008
aF1.5991499423980713
aF1.7129030227661133
aF1.8420109748840332
aF1.9785490036010742
aF2.1121041774749756
aF2.2680189609527588
aF2.4371609687805176
aF2.6138598918914795
aF2.7974109649658203
aF3.0093729496002197
a(lp823
I2
aI3
aI5
aI7
aI11
aI13
aI17
aI19
aI23
aI29
aI31
aI37
aI41
aI43
aI47
aI53
aI59
aI61
aI67
aI71
aI73
aI79
aI83
aI89
aI97
aI101
aI103
aI107
aI109
aI113
aI127
aI131
aI137
aI139
aI149
aI151
aI157
aI163
aI167
aI173
aI179
aI181
aI191
aI193
aI197
aI199
aI211
aI223
aI227
aI229
aI233
aI239
aI241
aI251
aI263
aI283
aI317
aI353
aI383
aI419
aI443
aI467
aI503
aI547
aI577
aI607
aI641
aI661
aI701
aI739
aI769
aI811
aI839
aI877
aI911
aI947
aI983
aI1019
aI1049
aI1087
aI1109
aI1153
aI1193
aI1229
aI1277
aI1297
aI1321
aI1381
aI1429
aI1453
aI1487
aI1523
aI1559
aI1597
aI1619
aI1663
aI1699
aI1741
aI1783
aI1823
aI1871
aI1901
aI1949
aI1993
aI2017
aI2063
aI2089
aI2131
aI2161
aI2221
aI2267
aI2293
aI2339
aI2371
aI2393
aI2437
aI2473
aI2539
aI2579
aI2621
aI2663
aI2689
aI2713
aI2749
aI2791
aI2833
aI2861
aI2909
aI2957
aI3001
aI3041
aI3083
aI3137
aI3187
aI3221
aI3259
aI3313
aI3343
aI3373
aI3433
aI3467
aI3517
aI3541
aI3581
aI3617
aI3659
aI3697
aI3733
aI3779
aI3823
aI3863
aI3911
aI3931
aI4001
aI4021
aI4073
aI4111
aI4153
aI4211
aI4241
aI4271
aI4327
aI4363
aI4421
aI4457
aI4507
aI4547
aI4591
aI4639
aI4663
aI4721
aI4759
aI4799
aI4861
aI4909
aI4943
aI4973
aI5009
aI5051
aI5099
aI5147
aI5189
aI5233
aI5281
aI5333
aI5393
aI5419
aI5449
aI5501
aI5527
aI5573
aI5641
aI5659
aI5701
aI5743
aI5801
aI5839
aI5861
aI5897
aI5953
aI6029
aI6067
aI6101
aI6143
aI6199
aI6229
aI6271
aI6311
aI6343
aI6373
aI6427
aI6481
aI6551
aI6577
aI6637
aI6679
aI6709
aI6763
aI6803
aI6841
aI6883
aI6947
aI6971
aI7001
aI7043
aI7109
aI7159
aI7211
aI7243
aI7307
aI7349
aI7417
aI7477
aI7507
aI7541
aI7573
aI7603
aI7649
aI7691
aI7727
aI7789
aI7841
aI7879
aI7927
aI7963
aI8039
aI8087
aI8117
aI8171
aI8221
aI8263
aI8293
aI8353
aI8389
aI8443
aI8513
aI8543
aI8599
aI8641
aI8681
aI8713
aI8747
aI8803
aI8837
aI8867
aI8933
aI8971
aI9013
aI9059
aI9127
aI9161
aI9203
aI9241
aI9293
aI9341
aI9391
aI9421
aI9461
aI9491
aI9539
aI9613
aI9643
aI9689
aI9739
aI9781
aI9817
aI9857
aI9901
aI9941
aI10009
aI10069
aI10103
aI10151
aI10181
aI10247
aI10273
aI10321
aI10357
aI10429
aI10463
aI10513
aI10589
aI10627
aI10663
aI10711
aI10753
aI10831
aI10861
aI10903
aI10957
aI11003
aI11069
aI11113
aI11159
aI11197
aI11257
aI11299
aI11351
aI11399
aI11447
aI11491
aI11549
aI11597
aI11677
aI11717
aI11779
aI11813
aI11839
aI11903
aI11939
aI11971
aI12037
aI12073
aI12113
aI12161
aI12227
aI12263
aI12301
aI12373
aI12409
aI12451
aI12491
aI12527
aI12569
aI12611
aI12647
aI12697
aI12743
aI12799
aI12841
aI12907
aI12941
aI12979
aI13009
aI13063
aI13121
aI13163
aI13217
aI13259
aI13313
aI13367
aI13417
aI13463
aI13513
aI13577
aI13627
aI13681
aI13709
aI13751
aI13789
aI13841
aI13883
aI13921
aI13997
aI14033
aI14083
aI14153
aI14207
aI14281
aI14327
aI14389
aI14423
aI14461
aI14533
aI14557
aI14621
aI14653
aI14713
aI14741
aI14771
aI14821
aI14867
aI14897
aI14951
aI15017
aI15077
aI15121
aI15161
aI15217
aI15263
aI15289
aI15329
aI15373
aI15413
aI15461
aI15511
aI15569
aI15619
aI15649
aI15683
aI15739
aI15787
aI15817
aI15887
aI15919
aI15973
aI16057
aI16073
aI16111
aI16187
aI16229
aI16273
aI16349
a(lp824
F3.4093856811523438e-05
aF3.3855438232421875e-05
aF3.4093856811523438e-05
aF3.4093856811523438e-05
aF3.6001205444335938e-05
aF3.6001205444335938e-05
aF3.6001205444335938e-05
aF3.6001205444335938e-05
aF3.6954879760742188e-05
aF3.8862228393554688e-05
aF4.00543212890625e-05
aF4.100799560546875e-05
aF4.291534423828125e-05
aF4.3153762817382812e-05
aF4.38690185546875e-05
aF4.6014785766601562e-05
aF4.9114227294921875e-05
aF5.0067901611328125e-05
aF5.2928924560546875e-05
aF5.4836273193359375e-05
aF5.4836273193359375e-05
aF5.8889389038085938e-05
aF6.103515625e-05
aF6.9856643676757812e-05
aF7.6055526733398438e-05
aF7.8916549682617188e-05
aF8.106231689453125e-05
aF8.296966552734375e-05
aF8.5115432739257812e-05
aF8.7976455688476562e-05
aF0.00010085105895996094
aF0.0001049041748046875
aF0.0001010894775390625
aF0.000102996826171875
aF0.00011181831359863281
aF0.00011491775512695312
aF0.0001220703125
aF0.000125885009765625
aF0.00013089179992675781
aF0.00013685226440429688
aF0.00014495849609375
aF0.00014710426330566406
aF0.00017380714416503906
aF0.00017619132995605469
aF0.00018310546875
aF0.00018477439880371094
aF0.00020289421081542969
aF0.00022006034851074219
aF0.000225067138671875
aF0.00022983551025390625
aF0.00023698806762695312
aF0.0002460479736328125
aF0.000247955322265625
aF0.00026583671569824219
aF0.0002880096435546875
aF0.00032591819763183594
aF0.00039601325988769531
aF0.00043702125549316406
aF0.00050592422485351562
aF0.00060296058654785156
aF0.00068902969360351562
aF0.0008029937744140625
aF0.00091886520385742188
aF0.0010747909545898438
aF0.0011899471282958984
aF0.0011980533599853516
aF0.0014531612396240234
aF0.001544952392578125
aF0.001728057861328125
aF0.0018279552459716797
aF0.0020818710327148438
aF0.0022900104522705078
aF0.0024580955505371094
aF0.0026869773864746094
aF0.0026829242706298828
aF0.0031030178070068359
aF0.0034029483795166016
aF0.0037760734558105469
aF0.0044949054718017578
aF0.0049369335174560547
aF0.0045239925384521484
aF0.0050051212310791016
aF0.0053029060363769531
aF0.0057089328765869141
aF0.0067260265350341797
aF0.0064949989318847656
aF0.0064771175384521484
aF0.0069451332092285156
aF0.0075910091400146484
aF0.0078179836273193359
aF0.0080430507659912109
aF0.0083391666412353516
aF0.0092670917510986328
aF0.0094470977783203125
aF0.0095639228820800781
aF0.010690927505493164
aF0.0135650634765625
aF0.01219487190246582
aF0.011970043182373047
aF0.012047052383422852
aF0.016259908676147461
aF0.013664960861206055
aF0.014409065246582031
aF0.014467954635620117
aF0.015323162078857422
aF0.015850067138671875
aF0.016230106353759766
aF0.016854047775268555
aF0.017494916915893555
aF0.018415927886962891
aF0.018675088882446289
aF0.022760152816772461
aF0.020639896392822266
aF0.022754907608032227
aF0.023121833801269531
aF0.022378921508789062
aF0.022770881652832031
aF0.024084091186523438
aF0.024749994277954102
aF0.026607036590576172
aF0.027026176452636719
aF0.028599023818969727
aF0.029704093933105469
aF0.035576105117797852
aF0.027009963989257812
aF0.029321908950805664
aF0.030111789703369141
aF0.031111001968383789
aF0.033064842224121094
aF0.033833026885986328
aF0.03418278694152832
aF0.035453081130981445
aF0.037372112274169922
aF0.037820100784301758
aF0.036817789077758789
aF0.038572072982788086
aF0.040452003479003906
aF0.038444995880126953
aF0.041740894317626953
aF0.04298090934753418
aF0.042549848556518555
aF0.044887065887451172
aF0.044331073760986328
aF0.046030044555664062
aF0.046062946319580078
aF0.047837972640991211
aF0.048744916915893555
aF0.050390958786010742
aF0.050574064254760742
aF0.051645040512084961
aF0.052462100982666016
aF0.053704023361206055
aF0.05438995361328125
aF0.055680036544799805
aF0.05704498291015625
aF0.058462142944335938
aF0.059185981750488281
aF0.06046295166015625
aF0.062349081039428711
aF0.062642097473144531
aF0.063899993896484375
aF0.065512895584106445
aF0.066341876983642578
aF0.067992925643920898
aF0.070177078247070312
aF0.070959091186523438
aF0.072224140167236328
aF0.073873043060302734
aF0.075242996215820312
aF0.076782941818237305
aF0.077585935592651367
aF0.079050064086914062
aF0.079550027847290039
aF0.081825017929077148
aF0.083346128463745117
aF0.084844112396240234
aF0.085321903228759766
aF0.087930917739868164
aF0.088407039642333984
aF0.089704990386962891
aF0.091404914855957031
aF0.092680931091308594
aF0.095974206924438477
aF0.098054885864257812
aF0.10648012161254883
aF0.10397577285766602
aF0.10156488418579102
aF0.10402584075927734
aF0.10695505142211914
aF0.1074221134185791
aF0.10746502876281738
aF0.11154794692993164
aF0.11249899864196777
aF0.11343002319335938
aF0.1172490119934082
aF0.12331199645996094
aF0.11609292030334473
aF0.11536407470703125
aF0.12970399856567383
aF0.12294697761535645
aF0.12418818473815918
aF0.13306903839111328
aF0.12556099891662598
aF0.12699198722839355
aF0.13899588584899902
aF0.15904092788696289
aF0.13492798805236816
aF0.13460707664489746
aF0.13565587997436523
aF0.13857293128967285
aF0.14015603065490723
aF0.14500689506530762
aF0.14617800712585449
aF0.14680600166320801
aF0.14888477325439453
aF0.15262389183044434
aF0.15135002136230469
aF0.15660405158996582
aF0.15884804725646973
aF0.15793108940124512
aF0.16443300247192383
aF0.1658940315246582
aF0.16403603553771973
aF0.16578221321105957
aF0.16915702819824219
aF0.17120504379272461
aF0.17290878295898438
aF0.17735600471496582
aF0.17980504035949707
aF0.19854903221130371
aF0.18830108642578125
aF0.19502592086791992
aF0.20022892951965332
aF0.197998046875
aF0.19846582412719727
aF0.20817995071411133
aF0.20275282859802246
aF0.21111297607421875
aF0.20603203773498535
aF0.21043205261230469
aF0.20997285842895508
aF0.21169495582580566
aF0.2121119499206543
aF0.21473312377929688
aF0.21864604949951172
aF0.22056198120117188
aF0.22278594970703125
aF0.22453808784484863
aF0.2277829647064209
aF0.23184895515441895
aF0.23477697372436523
aF0.23502898216247559
aF0.23870515823364258
aF0.24182701110839844
aF0.24454712867736816
aF0.24895906448364258
aF0.25031399726867676
aF0.25597882270812988
aF0.25768303871154785
aF0.25958395004272461
aF0.26143193244934082
aF0.26554203033447266
aF0.26804399490356445
aF0.27125406265258789
aF0.27442097663879395
aF0.28008389472961426
aF0.2810969352722168
aF0.28465008735656738
aF0.29072093963623047
aF0.29343104362487793
aF0.29412484169006348
aF0.30010795593261719
aF0.30183291435241699
aF0.30472493171691895
aF0.30756902694702148
aF0.31527495384216309
aF0.31324195861816406
aF0.31660580635070801
aF0.3206179141998291
aF0.3229069709777832
aF0.32940793037414551
aF0.33346009254455566
aF0.33463597297668457
aF0.34182405471801758
aF0.34039497375488281
aF0.34124183654785156
aF0.34291195869445801
aF0.34698104858398438
aF0.34937596321105957
aF0.35368990898132324
aF0.36063599586486816
aF0.36203098297119141
aF0.36608505249023438
aF0.36684703826904297
aF0.3721778392791748
aF0.37610697746276855
aF0.37924814224243164
aF0.38099908828735352
aF0.38778901100158691
aF0.39005494117736816
aF0.39700508117675781
aF0.40515589714050293
aF0.40609622001647949
aF0.40955400466918945
aF0.41332197189331055
aF0.42098784446716309
aF0.42584490776062012
aF0.43715214729309082
aF0.44994211196899414
aF0.45720100402832031
aF0.45150303840637207
aF0.49152708053588867
aF0.47579598426818848
aF0.46857810020446777
aF0.47728776931762695
aF0.48460984230041504
aF0.51702308654785156
aF0.49303102493286133
aF0.50240516662597656
aF0.52430605888366699
aF0.49471592903137207
aF0.5004570484161377
aF0.49757003784179688
aF0.49375391006469727
aF0.49751496315002441
aF0.50722002983093262
aF0.54209303855895996
aF0.57402300834655762
aF0.55911612510681152
aF0.52476787567138672
aF0.52681088447570801
aF0.53231906890869141
aF0.53292202949523926
aF0.53804612159729004
aF0.54155206680297852
aF0.57345890998840332
aF0.5709679126739502
aF0.59794497489929199
aF0.5759589672088623
aF0.60123896598815918
aF0.58062195777893066
aF0.60436820983886719
aF0.60098910331726074
aF0.59768009185791016
aF0.60319995880126953
aF0.60137486457824707
aF0.60321593284606934
aF0.63310623168945312
aF0.62329697608947754
aF0.60983896255493164
aF0.62320780754089355
aF0.64612507820129395
aF0.66453409194946289
aF0.62927913665771484
aF0.63564610481262207
aF0.64374399185180664
aF0.64427614212036133
aF0.64383888244628906
aF0.64832592010498047
aF0.65310215950012207
aF0.65886998176574707
aF0.66360116004943848
aF0.66937494277954102
aF0.67474794387817383
aF0.68124103546142578
aF0.69176292419433594
aF0.69598793983459473
aF0.70196104049682617
aF0.70491409301757812
aF0.70740103721618652
aF0.71846795082092285
aF0.71961808204650879
aF0.72536706924438477
aF0.7325289249420166
aF0.73418784141540527
aF0.73437905311584473
aF0.74305605888366699
aF0.74896001815795898
aF0.75905704498291016
aF0.76392793655395508
aF0.76971888542175293
aF0.77211618423461914
aF0.78148412704467773
aF0.79144406318664551
aF0.79518508911132812
aF0.80087399482727051
aF0.80804800987243652
aF0.81040096282958984
aF0.81474184989929199
aF0.81703019142150879
aF0.82309198379516602
aF0.82249188423156738
aF0.82603907585144043
aF0.83461499214172363
aF0.8379359245300293
aF0.85626697540283203
aF0.86546993255615234
aF0.8635411262512207
aF0.92041802406311035
aF0.88112211227416992
aF0.89061903953552246
aF0.89170408248901367
aF0.89610195159912109
aF0.90015292167663574
aF0.89686989784240723
aF0.90420007705688477
aF0.91151285171508789
aF0.91834712028503418
aF0.9212958812713623
aF0.92193078994750977
aF0.93381905555725098
aF0.94154715538024902
aF0.95641112327575684
aF0.96808600425720215
aF0.9698948860168457
aF0.96616291999816895
aF0.97583293914794922
aF0.97831988334655762
aF0.98051786422729492
aF0.99022388458251953
aF0.9940037727355957
aF0.99692106246948242
aF1.0095930099487305
atp825
.